Certificate:
    Data:
        Version: 3 (0x2)
        Serial Number: 1 (0x1)
    Signature Algorithm: sha256WithRSAEncryption
        Issuer: C=US, ST=Unset, L=Unset, O=Unset, CN=www.example.com
        Validity
            Not Before: Jan 26 14:40:38 2015 GMT
            Not After : Jan 23 14:40:38 2025 GMT
        Subject: C=US, ST=Unset, O=Unset, CN=www.example.com
        Subject Public Key Info:
            Public Key Algorithm: rsaEncryption
                Public-Key: (2048 bit)
                Modulus:
                    00:b6:dd:a4:02:ff:b0:39:37:5d:8f:64:e4:c9:05:
                    4e:78:76:12:38:0d:b4:32:fb:9c:8a:6f:34:00:53:
                    c1:12:30:3f:64:3b:97:89:01:69:d0:75:93:7a:52:
                    90:67:f8:fd:5b:e6:d4:f9:5a:84:cc:83:74:11:ee:
                    5e:43:b2:f3:b3:46:a7:04:37:30:b4:75:fb:67:b9:
                    3f:43:b3:45:e4:d4:d8:f2:33:06:57:3f:2f:d4:7d:
                    ca:a7:78:8e:56:7f:4d:c4:00:70:42:6e:0d:1e:a6:
                    1c:cd:2e:f7:1d:f5:bf:b0:9a:21:08:33:f8:90:b3:
                    33:3b:bb:21:49:f2:77:d8:8a:53:4d:a0:ea:b8:60:
                    61:f0:88:c7:25:97:0f:ff:d0:6b:65:1f:7e:0b:fc:
                    a7:14:59:d9:1c:52:9f:10:db:f0:93:30:16:0d:94:
                    55:32:1b:44:08:58:dd:a3:c5:2b:60:ce:58:f1:67:
                    3d:e0:4c:cd:42:71:3f:a1:02:71:3d:8a:26:39:97:
                    1a:aa:18:49:87:35:52:fa:58:22:18:f5:b6:4a:dd:
                    d6:3d:df:b2:78:64:1a:d3:07:c7:0c:7f:0b:72:65:
                    24:c9:a7:c0:49:27:c6:7b:de:e3:d5:ea:de:80:68:
                    e0:6d:09:02:cc:5d:fd:78:0d:ed:6f:40:68:17:5b:
                    0b:d1
                Exponent: 65537 (0x10001)
        X509v3 extensions:
            X509v3 Basic Constraints: 
                CA:FALSE
            X509v3 Subject Key Identifier: 
                E3:D9:61:28:57:42:7A:98:17:91:9B:57:62:7C:63:8A:C8:42:CC:4F
            X509v3 Authority Key Identifier: 
                keyid:E3:97:00:DD:EC:9E:C1:E4:1E:98:13:B6:47:CA:81:FC:83:00:36:38

    Signature Algorithm: sha256WithRSAEncryption
         4f:93:d2:fe:1a:d3:f1:84:96:aa:a7:cb:69:9f:30:6a:2f:bf:
         ce:4d:a3:95:51:54:43:ad:59:6b:87:dd:c1:61:47:96:79:65:
         d6:73:2d:85:c0:13:b1:71:70:4a:20:0a:d9:e1:0e:a0:c2:90:
         5e:c2:83:fd:6d:41:87:c2:62:ad:f6:f1:84:2c:9c:3f:e7:d6:
         43:c3:f0:f2:d6:d2:61:4d:01:cd:6b:20:3b:73:24:ba:42:16:
         94:e0:aa:02:28:73:29:06:1e:1a:9b:f0:95:29:d0:d5:99:45:
         24:6d:b4:94:ef:38:54:be:5c:8a:d8:21:06:8a:42:8d:07:08:
         06:37:6d:a6:1e:7a:01:34:92:86:aa:13:88:38:c3:a1:01:ab:
         42:12:00:8d:b6:4e:10:d8:b9:66:65:55:cf:05:ee:26:9e:cb:
         00:5b:47:9a:0d:7c:4c:c2:69:17:43:6c:81:c4:6f:f9:67:f7:
         f2:a4:f3:f1:e2:41:d6:c9:6b:38:91:1e:35:66:0d:89:31:ba:
         d4:bb:c4:a3:e0:bc:f4:c2:cd:76:08:e5:8c:1e:e8:e1:ae:94:
         d6:27:5d:29:09:87:2e:1f:e7:46:bc:fa:fe:12:1e:9e:e6:2c:
         12:02:7b:f5:3d:36:3d:ef:8a:bf:e9:9f:ad:32:22:18:3f:c1:
         aa:ba:f8:f1
-----BEGIN CERTIFICATE-----
MIIDZjCCAk6gAwIBAgIBATANBgkqhkiG9w0BAQsFADBXMQswCQYDVQQGEwJVUzEO
MAwGA1UECAwFVW5zZXQxDjAMBgNVBAcMBVVuc2V0MQ4wDAYDVQQKDAVVbnNldDEY
MBYGA1UEAwwPd3d3LmV4YW1wbGUuY29tMB4XDTE1MDEyNjE0NDAzOFoXDTI1MDEy
MzE0NDAzOFowRzELMAkGA1UEBhMCVVMxDjAMBgNVBAgMBVVuc2V0MQ4wDAYDVQQK
DAVVbnNldDEYMBYGA1UEAwwPd3d3LmV4YW1wbGUuY29tMIIBIjANBgkqhkiG9w0B
AQEFAAOCAQ8AMIIBCgKCAQEAtt2kAv+wOTddj2TkyQVOeHYSOA20Mvucim80AFPB
EjA/ZDuXiQFp0HWTelKQZ/j9W+bU+VqEzIN0Ee5eQ7Lzs0anBDcwtHX7Z7k/Q7NF
5NTY8jMGVz8v1H3Kp3iOVn9NxABwQm4NHqYczS73HfW/sJohCDP4kLMzO7shSfJ3
2IpTTaDquGBh8IjHJZcP/9BrZR9+C/ynFFnZHFKfENvwkzAWDZRVMhtECFjdo8Ur
YM5Y8Wc94EzNQnE/oQJxPYomOZcaqhhJhzVS+lgiGPW2St3WPd+yeGQa0wfHDH8L
cmUkyafASSfGe97j1eregGjgbQkCzF39eA3tb0BoF1sL0QIDAQABo00wSzAJBgNV
HRMEAjAAMB0GA1UdDgQWBBTj2WEoV0J6mBeRm1difGOKyELMTzAfBgNVHSMEGDAW
gBTjlwDd7J7B5B6YE7ZHyoH8gwA2ODANBgkqhkiG9w0BAQsFAAOCAQEAT5PS/hrT
8YSWqqfLaZ8wai+/zk2jlVFUQ61Za4fdwWFHlnll1nMthcATsXFwSiAK2eEOoMKQ
XsKD/W1Bh8JirfbxhCycP+fWQ8Pw8tbSYU0BzWsgO3MkukIWlOCqAihzKQYeGpvw
lSnQ1ZlFJG20lO84VL5citghBopCjQcIBjdtph56ATSShqoTiDjDoQGrQhIAjbZO
ENi5ZmVVzwXuJp7LAFtHmg18TMJpF0NsgcRv+Wf38qTz8eJB1slrOJEeNWYNiTG6
1LvEo+C89MLNdgjljB7o4a6U1iddKQmHLh/nRrz6/hIenuYsEgJ79T02Pe+Kv+mf
rTIiGD/Bqrr48Q==
-----END CERTIFICATE-----
